target datalayout = "e-m:e-p270:32:32-p271:32:32-p272:64:64-i64:64-i128:128-f80:128-n8:16:32:64-S128"
target triple = "x86_64-pc-linux-gnu"

%"class.icu_77::FieldPositionOnlyHandler" = type <{ %"class.icu_77::FieldPositionHandler.base", [4 x i8], ptr, i8, i8, [6 x i8] }>
%"class.icu_77::FieldPositionHandler.base" = type <{ ptr, i32 }>
%"class.icu_77::FieldPosition" = type <{ %"class.icu_77::UObject", i32, i32, i32, [4 x i8] }>
%"class.icu_77::UObject" = type { ptr }

; Function Attrs: mustprogress nounwind uwtable
define linkonce_odr void @_ZN6icu_7713FieldPosition11setEndIndexEi(ptr noundef nonnull align 8 dereferenceable(20) %0, i32 noundef %1) #0 comdat align 2 {
  %3 = alloca ptr, align 8
  %4 = alloca i32, align 4
  store ptr %0, ptr %3, align 8, !tbaa !14
  store i32 %1, ptr %4, align 4, !tbaa !8
  %5 = load ptr, ptr %3, align 8
  %6 = load i32, ptr %4, align 4, !tbaa !8
  %7 = getelementptr inbounds nuw %"class.icu_77::FieldPosition", ptr %5, i32 0, i32 3
  store i32 %6, ptr %7, align 8, !tbaa !26
  ret void
}

; Function Attrs: mustprogress nounwind uwtable
define linkonce_odr noundef i32 @_ZNK6icu_7713FieldPosition11getEndIndexEv(ptr noundef nonnull align 8 dereferenceable(20) %0) #0 comdat align 2 {
  %2 = alloca ptr, align 8
  store ptr %0, ptr %2, align 8, !tbaa !14
  %3 = load ptr, ptr %2, align 8
  %4 = getelementptr inbounds nuw %"class.icu_77::FieldPosition", ptr %3, i32 0, i32 3
  %5 = load i32, ptr %4, align 8, !tbaa !26
  ret i32 %5
}

; Function Attrs: mustprogress nounwind uwtable
define linkonce_odr void @_ZN6icu_7713FieldPosition13setBeginIndexEi(ptr noundef nonnull align 8 dereferenceable(20) %0, i32 noundef %1) #0 comdat align 2 {
  %3 = alloca ptr, align 8
  %4 = alloca i32, align 4
  store ptr %0, ptr %3, align 8, !tbaa !14
  store i32 %1, ptr %4, align 4, !tbaa !8
  %5 = load ptr, ptr %3, align 8
  %6 = load i32, ptr %4, align 4, !tbaa !8
  %7 = getelementptr inbounds nuw %"class.icu_77::FieldPosition", ptr %5, i32 0, i32 2
  store i32 %6, ptr %7, align 4, !tbaa !25
  ret void
}

; Function Attrs: mustprogress nounwind uwtable
define linkonce_odr noundef i32 @_ZNK6icu_7713FieldPosition13getBeginIndexEv(ptr noundef nonnull align 8 dereferenceable(20) %0) #0 comdat align 2 {
  %2 = alloca ptr, align 8
  store ptr %0, ptr %2, align 8, !tbaa !14
  %3 = load ptr, ptr %2, align 8
  %4 = getelementptr inbounds nuw %"class.icu_77::FieldPosition", ptr %3, i32 0, i32 2
  %5 = load i32, ptr %4, align 4, !tbaa !25
  ret i32 %5
}

; Function Attrs: mustprogress nounwind uwtable
define linkonce_odr noundef i32 @_ZNK6icu_7713FieldPosition8getFieldEv(ptr noundef nonnull align 8 dereferenceable(20) %0) #0 comdat align 2 {
  %2 = alloca ptr, align 8
  store ptr %0, ptr %2, align 8, !tbaa !14
  %3 = load ptr, ptr %2, align 8
  %4 = getelementptr inbounds nuw %"class.icu_77::FieldPosition", ptr %3, i32 0, i32 1
  %5 = load i32, ptr %4, align 8, !tbaa !22
  ret i32 %5
}

; Function Attrs: mustprogress uwtable
define void @_ZN6icu_7724FieldPositionOnlyHandler9shiftLastEi(ptr noundef nonnull align 8 dereferenceable(26) %0, i32 noundef %1) unnamed_addr #4 align 2 {
  %3 = alloca ptr, align 8
  %4 = alloca i32, align 4
  store ptr %0, ptr %3, align 8, !tbaa !12
  store i32 %1, ptr %4, align 4, !tbaa !8
  %5 = load ptr, ptr %3, align 8
  %6 = load i32, ptr %4, align 4, !tbaa !8
  %7 = icmp ne i32 %6, 0
  br i1 %7, label %8, label %33

8:                                                ; preds = %2
  %9 = getelementptr inbounds nuw %"class.icu_77::FieldPositionOnlyHandler", ptr %5, i32 0, i32 2
  %10 = load ptr, ptr %9, align 8, !tbaa !21
  %11 = call noundef i32 @_ZNK6icu_7713FieldPosition8getFieldEv(ptr noundef nonnull align 8 dereferenceable(20) %10)
  %12 = icmp ne i32 %11, -1
  br i1 %12, label %13, label %33

13:                                               ; preds = %8
  %14 = getelementptr inbounds nuw %"class.icu_77::FieldPositionOnlyHandler", ptr %5, i32 0, i32 2
  %15 = load ptr, ptr %14, align 8, !tbaa !21
  %16 = call noundef i32 @_ZNK6icu_7713FieldPosition13getBeginIndexEv(ptr noundef nonnull align 8 dereferenceable(20) %15)
  %17 = icmp ne i32 %16, -1
  br i1 %17, label %18, label %33

18:                                               ; preds = %13
  %19 = getelementptr inbounds nuw %"class.icu_77::FieldPositionOnlyHandler", ptr %5, i32 0, i32 2
  %20 = load ptr, ptr %19, align 8, !tbaa !21
  %21 = load i32, ptr %4, align 4, !tbaa !8
  %22 = getelementptr inbounds nuw %"class.icu_77::FieldPositionOnlyHandler", ptr %5, i32 0, i32 2
  %23 = load ptr, ptr %22, align 8, !tbaa !21
  %24 = call noundef i32 @_ZNK6icu_7713FieldPosition13getBeginIndexEv(ptr noundef nonnull align 8 dereferenceable(20) %23)
  %25 = add nsw i32 %21, %24
  call void @_ZN6icu_7713FieldPosition13setBeginIndexEi(ptr noundef nonnull align 8 dereferenceable(20) %20, i32 noundef %25)
  %26 = getelementptr inbounds nuw %"class.icu_77::FieldPositionOnlyHandler", ptr %5, i32 0, i32 2
  %27 = load ptr, ptr %26, align 8, !tbaa !21
  %28 = load i32, ptr %4, align 4, !tbaa !8
  %29 = getelementptr inbounds nuw %"class.icu_77::FieldPositionOnlyHandler", ptr %5, i32 0, i32 2
  %30 = load ptr, ptr %29, align 8, !tbaa !21
  %31 = call noundef i32 @_ZNK6icu_7713FieldPosition11getEndIndexEv(ptr noundef nonnull align 8 dereferenceable(20) %30)
  %32 = add nsw i32 %28, %31
  call void @_ZN6icu_7713FieldPosition11setEndIndexEi(ptr noundef nonnull align 8 dereferenceable(20) %27, i32 noundef %32)
  br label %33

33:                                               ; preds = %18, %13, %8, %2
  ret void
}