; Function Attrs: mustprogress nofree norecurse nosync nounwind willreturn memory(readwrite, inaccessiblemem: none) uwtable
define void @_ZN6icu_7724FieldPositionOnlyHandler9shiftLastEi(ptr noundef nonnull readonly align 8 captures(none) dereferenceable(26) %0, i32 noundef %1) unnamed_addr #6 align 2 {
  %.not = icmp eq i32 %1, 0
  br i1 %.not, label %16, label %3

3:                                                ; preds = %2
  %4 = getelementptr inbounds nuw i8, ptr %0, i64 16
  %5 = load ptr, ptr %4, align 8, !tbaa !16
  %6 = getelementptr inbounds nuw i8, ptr %5, i64 8
  %7 = load i32, ptr %6, align 8, !tbaa !17
  %.not3 = icmp eq i32 %7, -1
  br i1 %.not3, label %16, label %8

8:                                                ; preds = %3
  %9 = getelementptr inbounds nuw i8, ptr %5, i64 12
  %10 = load i32, ptr %9, align 4, !tbaa !20
  %.not4 = icmp eq i32 %10, -1
  br i1 %.not4, label %16, label %11

11:                                               ; preds = %8
  %12 = add nsw i32 %10, %1
  store i32 %12, ptr %9, align 4, !tbaa !20
  %13 = getelementptr inbounds nuw i8, ptr %5, i64 16
  %14 = load i32, ptr %13, align 8, !tbaa !21
  %15 = add nsw i32 %14, %1
  store i32 %15, ptr %13, align 8, !tbaa !21
  br label %16

16:                                               ; preds = %11, %8, %3, %2
  ret void
}